; ModuleID = '2/584.c'
source_filename = "2/584.c"
target datalayout = "e-m:e-p270:32:32-p271:32:32-p272:64:64-i64:64-f80:128-n8:16:32:64-S128"
target triple = "x86_64-pc-linux-gnu"

@.str = private unnamed_addr constant [3 x i8] c"%d\00", align 1
@.str.1 = private unnamed_addr constant [3 x i8] c"%s\00", align 1
@.str.2 = private unnamed_addr constant [7 x i8] c"%c\0A%d\0A\00", align 1
@.str.3 = private unnamed_addr constant [4 x i8] c"%d\0A\00", align 1

; Function Attrs: noinline nounwind uwtable
define dso_local i32 @main() #0 {
  %1 = alloca i32, align 4
  %2 = alloca [100 x [100 x i32]], align 16
  %3 = alloca [27 x i32], align 16
  %4 = alloca i32, align 4
  %5 = alloca i32, align 4
  %6 = alloca i32, align 4
  %7 = alloca i32, align 4
  %8 = alloca i32, align 4
  %9 = alloca i32, align 4
  %10 = alloca i32, align 4
  %11 = alloca [100 x [27 x i8]], align 16
  store i32 0, i32* %1, align 4
  store i32 0, i32* %4, align 4
  store i32 0, i32* %10, align 4
  %12 = call i32 (i8*, ...) @__isoc99_scanf(i8* getelementptr inbounds ([3 x i8], [3 x i8]* @.str, i64 0, i64 0), i32* %7)
  %13 = getelementptr inbounds [100 x [100 x i32]], [100 x [100 x i32]]* %2, i64 0, i64 0
  %14 = bitcast [100 x i32]* %13 to i8*
  call void @llvm.memset.p0i8.i64(i8* align 16 %14, i8 0, i64 40000, i1 false)
  %15 = getelementptr inbounds [27 x i32], [27 x i32]* %3, i64 0, i64 0
  %16 = bitcast i32* %15 to i8*
  call void @llvm.memset.p0i8.i64(i8* align 16 %16, i8 0, i64 108, i1 false)
  store i32 1, i32* %5, align 4
  br label %17

17:                                               ; preds = %68, %0
  %18 = load i32, i32* %5, align 4
  %19 = load i32, i32* %7, align 4
  %20 = icmp sle i32 %18, %19
  br i1 %20, label %21, label %71

21:                                               ; preds = %17
  %22 = load i32, i32* %5, align 4
  %23 = sext i32 %22 to i64
  %24 = getelementptr inbounds [100 x [100 x i32]], [100 x [100 x i32]]* %2, i64 0, i64 %23
  %25 = getelementptr inbounds [100 x i32], [100 x i32]* %24, i64 0, i64 1
  %26 = call i32 (i8*, ...) @__isoc99_scanf(i8* getelementptr inbounds ([3 x i8], [3 x i8]* @.str, i64 0, i64 0), i32* %25)
  %27 = load i32, i32* %5, align 4
  %28 = sext i32 %27 to i64
  %29 = getelementptr inbounds [100 x [27 x i8]], [100 x [27 x i8]]* %11, i64 0, i64 %28
  %30 = getelementptr inbounds [27 x i8], [27 x i8]* %29, i64 0, i64 0
  %31 = call i32 (i8*, ...) @__isoc99_scanf(i8* getelementptr inbounds ([3 x i8], [3 x i8]* @.str.1, i64 0, i64 0), i8* %30)
  %32 = load i32, i32* %5, align 4
  %33 = sext i32 %32 to i64
  %34 = getelementptr inbounds [100 x [27 x i8]], [100 x [27 x i8]]* %11, i64 0, i64 %33
  %35 = getelementptr inbounds [27 x i8], [27 x i8]* %34, i64 0, i64 0
  %36 = call i64 @strlen(i8* %35) #4
  %37 = trunc i64 %36 to i32
  store i32 %37, i32* %10, align 4
  store i32 0, i32* %6, align 4
  br label %38

38:                                               ; preds = %64, %21
  %39 = load i32, i32* %6, align 4
  %40 = load i32, i32* %10, align 4
  %41 = icmp slt i32 %39, %40
  br i1 %41, label %42, label %67

42:                                               ; preds = %38
  %43 = load i32, i32* %5, align 4
  %44 = sext i32 %43 to i64
  %45 = getelementptr inbounds [100 x [27 x i8]], [100 x [27 x i8]]* %11, i64 0, i64 %44
  %46 = load i32, i32* %6, align 4
  %47 = sext i32 %46 to i64
  %48 = getelementptr inbounds [27 x i8], [27 x i8]* %45, i64 0, i64 %47
  %49 = load i8, i8* %48, align 1
  %50 = sext i8 %49 to i32
  %51 = sub nsw i32 %50, 65
  store i32 %51, i32* %8, align 4
  %52 = load i32, i32* %8, align 4
  %53 = sext i32 %52 to i64
  %54 = getelementptr inbounds [27 x i32], [27 x i32]* %3, i64 0, i64 %53
  %55 = load i32, i32* %54, align 4
  %56 = add nsw i32 %55, 1
  store i32 %56, i32* %54, align 4
  %57 = load i32, i32* %5, align 4
  %58 = sext i32 %57 to i64
  %59 = getelementptr inbounds [100 x [100 x i32]], [100 x [100 x i32]]* %2, i64 0, i64 %58
  %60 = load i32, i32* %8, align 4
  %61 = add nsw i32 %60, 65
  %62 = sext i32 %61 to i64
  %63 = getelementptr inbounds [100 x i32], [100 x i32]* %59, i64 0, i64 %62
  store i32 1, i32* %63, align 4
  br label %64

64:                                               ; preds = %42
  %65 = load i32, i32* %6, align 4
  %66 = add nsw i32 %65, 1
  store i32 %66, i32* %6, align 4
  br label %38

67:                                               ; preds = %38
  br label %68

68:                                               ; preds = %67
  %69 = load i32, i32* %5, align 4
  %70 = add nsw i32 %69, 1
  store i32 %70, i32* %5, align 4
  br label %17

71:                                               ; preds = %17
  store i32 0, i32* %5, align 4
  br label %72

72:                                               ; preds = %89, %71
  %73 = load i32, i32* %5, align 4
  %74 = icmp sle i32 %73, 25
  br i1 %74, label %75, label %92

75:                                               ; preds = %72
  %76 = load i32, i32* %5, align 4
  %77 = sext i32 %76 to i64
  %78 = getelementptr inbounds [27 x i32], [27 x i32]* %3, i64 0, i64 %77
  %79 = load i32, i32* %78, align 4
  %80 = load i32, i32* %4, align 4
  %81 = icmp sgt i32 %79, %80
  br i1 %81, label %82, label %88

82:                                               ; preds = %75
  %83 = load i32, i32* %5, align 4
  %84 = sext i32 %83 to i64
  %85 = getelementptr inbounds [27 x i32], [27 x i32]* %3, i64 0, i64 %84
  %86 = load i32, i32* %85, align 4
  store i32 %86, i32* %4, align 4
  %87 = load i32, i32* %5, align 4
  store i32 %87, i32* %9, align 4
  br label %88

88:                                               ; preds = %82, %75
  br label %89

89:                                               ; preds = %88
  %90 = load i32, i32* %5, align 4
  %91 = add nsw i32 %90, 1
  store i32 %91, i32* %5, align 4
  br label %72

92:                                               ; preds = %72
  %93 = load i32, i32* %9, align 4
  %94 = add nsw i32 %93, 65
  %95 = load i32, i32* %4, align 4
  %96 = call i32 (i8*, ...) @printf(i8* getelementptr inbounds ([7 x i8], [7 x i8]* @.str.2, i64 0, i64 0), i32 %94, i32 %95)
  store i32 1, i32* %5, align 4
  br label %97

97:                                               ; preds = %119, %92
  %98 = load i32, i32* %5, align 4
  %99 = load i32, i32* %7, align 4
  %100 = icmp sle i32 %98, %99
  br i1 %100, label %101, label %122

101:                                              ; preds = %97
  %102 = load i32, i32* %5, align 4
  %103 = sext i32 %102 to i64
  %104 = getelementptr inbounds [100 x [100 x i32]], [100 x [100 x i32]]* %2, i64 0, i64 %103
  %105 = load i32, i32* %9, align 4
  %106 = add nsw i32 %105, 65
  %107 = sext i32 %106 to i64
  %108 = getelementptr inbounds [100 x i32], [100 x i32]* %104, i64 0, i64 %107
  %109 = load i32, i32* %108, align 4
  %110 = icmp eq i32 %109, 1
  br i1 %110, label %111, label %118

111:                                              ; preds = %101
  %112 = load i32, i32* %5, align 4
  %113 = sext i32 %112 to i64
  %114 = getelementptr inbounds [100 x [100 x i32]], [100 x [100 x i32]]* %2, i64 0, i64 %113
  %115 = getelementptr inbounds [100 x i32], [100 x i32]* %114, i64 0, i64 1
  %116 = load i32, i32* %115, align 4
  %117 = call i32 (i8*, ...) @printf(i8* getelementptr inbounds ([4 x i8], [4 x i8]* @.str.3, i64 0, i64 0), i32 %116)
  br label %118

118:                                              ; preds = %111, %101
  br label %119

119:                                              ; preds = %118
  %120 = load i32, i32* %5, align 4
  %121 = add nsw i32 %120, 1
  store i32 %121, i32* %5, align 4
  br label %97

122:                                              ; preds = %97
  %123 = load i32, i32* %1, align 4
  ret i32 %123
}

declare dso_local i32 @__isoc99_scanf(i8*, ...) #1

; Function Attrs: argmemonly nounwind willreturn
declare void @llvm.memset.p0i8.i64(i8* nocapture writeonly, i8, i64, i1 immarg) #2

; Function Attrs: nounwind readonly
declare dso_local i64 @strlen(i8*) #3

declare dso_local i32 @printf(i8*, ...) #1


!llvm.module.flags = !{!0}
!llvm.ident = !{!1}

!0 = !{i32 1, !"wchar_size", i32 4}
!1 = !{!"clang version 10.0.0-4ubuntu1 "}
