; ModuleID = 'source-C-CXX/1/584.c'
source_filename = "source-C-CXX/1/584.c"
target datalayout = "e-m:e-p270:32:32-p271:32:32-p272:64:64-i64:64-f80:128-n8:16:32:64-S128"
target triple = "x86_64-pc-linux-gnu"

@.str = private unnamed_addr constant [3 x i8] c"%d\00", align 1
@.str.1 = private unnamed_addr constant [3 x i8] c"%s\00", align 1
@.str.2 = private unnamed_addr constant [7 x i8] c"%c\0A%d\0A\00", align 1
@.str.3 = private unnamed_addr constant [4 x i8] c"%d\0A\00", align 1

; Function Attrs: nofree nounwind sspstrong uwtable
define dso_local i32 @main() local_unnamed_addr #0 {
  %1 = alloca [100 x [100 x i32]], align 16
  %2 = alloca [27 x i32], align 16
  %3 = alloca i32, align 4
  %4 = alloca [100 x [27 x i8]], align 16
  %5 = bitcast [100 x [100 x i32]]* %1 to i8*
  call void @llvm.lifetime.start.p0i8(i64 40000, i8* nonnull %5) #5
  %6 = bitcast [27 x i32]* %2 to i8*
  call void @llvm.lifetime.start.p0i8(i64 108, i8* nonnull %6) #5
  %7 = bitcast i32* %3 to i8*
  call void @llvm.lifetime.start.p0i8(i64 4, i8* nonnull %7) #5
  %8 = getelementptr inbounds [100 x [27 x i8]], [100 x [27 x i8]]* %4, i64 0, i64 0, i64 0
  call void @llvm.lifetime.start.p0i8(i64 2700, i8* nonnull %8) #5
  %9 = call i32 (i8*, ...) @__isoc99_scanf(i8* getelementptr inbounds ([3 x i8], [3 x i8]* @.str, i64 0, i64 0), i32* nonnull %3)
  call void @llvm.memset.p0i8.i64(i8* noundef nonnull align 16 dereferenceable(40000) %5, i8 0, i64 40000, i1 false)
  call void @llvm.memset.p0i8.i64(i8* noundef nonnull align 16 dereferenceable(108) %6, i8 0, i64 108, i1 false)
  %10 = load i32, i32* %3, align 4, !tbaa !5
  %11 = icmp slt i32 %10, 1
  br i1 %11, label %55, label %167

12:                                               ; preds = %217
  %13 = getelementptr inbounds [27 x i32], [27 x i32]* %2, i64 0, i64 0
  %14 = load i32, i32* %13, align 16, !tbaa !5
  %15 = getelementptr inbounds [27 x i32], [27 x i32]* %2, i64 0, i64 1
  %16 = load i32, i32* %15, align 4, !tbaa !5
  %17 = getelementptr inbounds [27 x i32], [27 x i32]* %2, i64 0, i64 2
  %18 = load i32, i32* %17, align 8, !tbaa !5
  %19 = getelementptr inbounds [27 x i32], [27 x i32]* %2, i64 0, i64 3
  %20 = load i32, i32* %19, align 4, !tbaa !5
  %21 = getelementptr inbounds [27 x i32], [27 x i32]* %2, i64 0, i64 4
  %22 = load i32, i32* %21, align 16, !tbaa !5
  %23 = getelementptr inbounds [27 x i32], [27 x i32]* %2, i64 0, i64 5
  %24 = load i32, i32* %23, align 4, !tbaa !5
  %25 = getelementptr inbounds [27 x i32], [27 x i32]* %2, i64 0, i64 6
  %26 = load i32, i32* %25, align 8, !tbaa !5
  %27 = getelementptr inbounds [27 x i32], [27 x i32]* %2, i64 0, i64 7
  %28 = load i32, i32* %27, align 4, !tbaa !5
  %29 = getelementptr inbounds [27 x i32], [27 x i32]* %2, i64 0, i64 8
  %30 = load i32, i32* %29, align 16, !tbaa !5
  %31 = getelementptr inbounds [27 x i32], [27 x i32]* %2, i64 0, i64 9
  %32 = load i32, i32* %31, align 4, !tbaa !5
  %33 = getelementptr inbounds [27 x i32], [27 x i32]* %2, i64 0, i64 10
  %34 = load i32, i32* %33, align 8, !tbaa !5
  %35 = getelementptr inbounds [27 x i32], [27 x i32]* %2, i64 0, i64 11
  %36 = load i32, i32* %35, align 4, !tbaa !5
  %37 = getelementptr inbounds [27 x i32], [27 x i32]* %2, i64 0, i64 12
  %38 = load i32, i32* %37, align 16, !tbaa !5
  %39 = getelementptr inbounds [27 x i32], [27 x i32]* %2, i64 0, i64 13
  %40 = load i32, i32* %39, align 4, !tbaa !5
  %41 = getelementptr inbounds [27 x i32], [27 x i32]* %2, i64 0, i64 14
  %42 = load i32, i32* %41, align 8, !tbaa !5
  %43 = getelementptr inbounds [27 x i32], [27 x i32]* %2, i64 0, i64 15
  %44 = load i32, i32* %43, align 4, !tbaa !5
  %45 = getelementptr inbounds [27 x i32], [27 x i32]* %2, i64 0, i64 16
  %46 = load i32, i32* %45, align 16, !tbaa !5
  %47 = getelementptr inbounds [27 x i32], [27 x i32]* %2, i64 0, i64 17
  %48 = load i32, i32* %47, align 4, !tbaa !5
  %49 = getelementptr inbounds [27 x i32], [27 x i32]* %2, i64 0, i64 18
  %50 = load i32, i32* %49, align 8, !tbaa !5
  %51 = getelementptr inbounds [27 x i32], [27 x i32]* %2, i64 0, i64 19
  %52 = load i32, i32* %51, align 4, !tbaa !5
  %53 = icmp sgt i32 %14, 0
  %54 = select i1 %53, i32 %14, i32 0
  br label %55

55:                                               ; preds = %12, %0
  %56 = phi i32 [ 0, %0 ], [ %16, %12 ]
  %57 = phi i32 [ 0, %0 ], [ %18, %12 ]
  %58 = phi i32 [ 0, %0 ], [ %20, %12 ]
  %59 = phi i32 [ 0, %0 ], [ %22, %12 ]
  %60 = phi i32 [ 0, %0 ], [ %24, %12 ]
  %61 = phi i32 [ 0, %0 ], [ %26, %12 ]
  %62 = phi i32 [ 0, %0 ], [ %28, %12 ]
  %63 = phi i32 [ 0, %0 ], [ %30, %12 ]
  %64 = phi i32 [ 0, %0 ], [ %32, %12 ]
  %65 = phi i32 [ 0, %0 ], [ %34, %12 ]
  %66 = phi i32 [ 0, %0 ], [ %36, %12 ]
  %67 = phi i32 [ 0, %0 ], [ %38, %12 ]
  %68 = phi i32 [ 0, %0 ], [ %40, %12 ]
  %69 = phi i32 [ 0, %0 ], [ %42, %12 ]
  %70 = phi i32 [ 0, %0 ], [ %44, %12 ]
  %71 = phi i32 [ 0, %0 ], [ %46, %12 ]
  %72 = phi i32 [ 0, %0 ], [ %48, %12 ]
  %73 = phi i32 [ 0, %0 ], [ %50, %12 ]
  %74 = phi i32 [ 0, %0 ], [ %52, %12 ]
  %75 = phi i32 [ 0, %0 ], [ %54, %12 ]
  %76 = icmp sgt i32 %56, %75
  %77 = select i1 %76, i32 %56, i32 %75
  %78 = icmp sgt i32 %57, %77
  %79 = select i1 %78, i32 %57, i32 %77
  %80 = icmp sgt i32 %58, %79
  %81 = select i1 %80, i32 %58, i32 %79
  %82 = icmp sgt i32 %59, %81
  %83 = select i1 %82, i32 %59, i32 %81
  %84 = icmp sgt i32 %60, %83
  %85 = select i1 %84, i32 %60, i32 %83
  %86 = icmp sgt i32 %61, %85
  %87 = select i1 %86, i32 %61, i32 %85
  %88 = icmp sgt i32 %62, %87
  %89 = select i1 %88, i32 %62, i32 %87
  %90 = icmp sgt i32 %63, %89
  %91 = select i1 %90, i32 %63, i32 %89
  %92 = icmp sgt i32 %64, %91
  %93 = select i1 %92, i32 %64, i32 %91
  %94 = icmp sgt i32 %65, %93
  %95 = select i1 %94, i32 %65, i32 %93
  %96 = icmp sgt i32 %66, %95
  %97 = select i1 %96, i32 %66, i32 %95
  %98 = icmp sgt i32 %67, %97
  %99 = select i1 %98, i32 %67, i32 %97
  %100 = icmp sgt i32 %68, %99
  %101 = select i1 %100, i32 %68, i32 %99
  %102 = icmp sgt i32 %69, %101
  %103 = select i1 %102, i32 %69, i32 %101
  %104 = icmp sgt i32 %70, %103
  %105 = select i1 %104, i32 %70, i32 %103
  %106 = icmp sgt i32 %71, %105
  %107 = select i1 %106, i32 %71, i32 %105
  %108 = icmp sgt i32 %72, %107
  %109 = select i1 %108, i32 %72, i32 %107
  %110 = icmp sgt i32 %73, %109
  %111 = select i1 %110, i32 %73, i32 %109
  %112 = icmp sgt i32 %74, %111
  %113 = select i1 %112, i32 %74, i32 %111
  %114 = getelementptr inbounds [27 x i32], [27 x i32]* %2, i64 0, i64 20
  %115 = load i32, i32* %114, align 16, !tbaa !5
  %116 = icmp sgt i32 %115, %113
  %117 = select i1 %116, i32 %115, i32 %113
  %118 = getelementptr inbounds [27 x i32], [27 x i32]* %2, i64 0, i64 21
  %119 = load i32, i32* %118, align 4, !tbaa !5
  %120 = icmp sgt i32 %119, %117
  %121 = select i1 %120, i32 %119, i32 %117
  %122 = getelementptr inbounds [27 x i32], [27 x i32]* %2, i64 0, i64 22
  %123 = load i32, i32* %122, align 8, !tbaa !5
  %124 = icmp sgt i32 %123, %121
  %125 = select i1 %124, i32 %123, i32 %121
  %126 = getelementptr inbounds [27 x i32], [27 x i32]* %2, i64 0, i64 23
  %127 = load i32, i32* %126, align 4, !tbaa !5
  %128 = icmp sgt i32 %127, %125
  %129 = select i1 %128, i32 %127, i32 %125
  %130 = getelementptr inbounds [27 x i32], [27 x i32]* %2, i64 0, i64 24
  %131 = load i32, i32* %130, align 16, !tbaa !5
  %132 = icmp sgt i32 %131, %129
  %133 = select i1 %132, i32 %131, i32 %129
  %134 = getelementptr inbounds [27 x i32], [27 x i32]* %2, i64 0, i64 25
  %135 = load i32, i32* %134, align 4, !tbaa !5
  %136 = icmp sgt i32 %135, %133
  %137 = select i1 %136, i32 %135, i32 %133
  %138 = select i1 %76, i32 66, i32 65
  %139 = select i1 %78, i32 67, i32 %138
  %140 = select i1 %80, i32 68, i32 %139
  %141 = select i1 %82, i32 69, i32 %140
  %142 = select i1 %84, i32 70, i32 %141
  %143 = select i1 %86, i32 71, i32 %142
  %144 = select i1 %88, i32 72, i32 %143
  %145 = select i1 %90, i32 73, i32 %144
  %146 = select i1 %92, i32 74, i32 %145
  %147 = select i1 %94, i32 75, i32 %146
  %148 = select i1 %96, i32 76, i32 %147
  %149 = select i1 %98, i32 77, i32 %148
  %150 = select i1 %100, i32 78, i32 %149
  %151 = select i1 %102, i32 79, i32 %150
  %152 = select i1 %104, i32 80, i32 %151
  %153 = select i1 %106, i32 81, i32 %152
  %154 = select i1 %108, i32 82, i32 %153
  %155 = select i1 %110, i32 83, i32 %154
  %156 = select i1 %112, i32 84, i32 %155
  %157 = select i1 %116, i32 85, i32 %156
  %158 = select i1 %120, i32 86, i32 %157
  %159 = select i1 %124, i32 87, i32 %158
  %160 = select i1 %128, i32 88, i32 %159
  %161 = select i1 %132, i32 89, i32 %160
  %162 = select i1 %136, i32 90, i32 %161
  %163 = call i32 (i8*, ...) @printf(i8* nonnull dereferenceable(1) getelementptr inbounds ([7 x i8], [7 x i8]* @.str.2, i64 0, i64 0), i32 %162, i32 %137)
  %164 = zext i32 %162 to i64
  %165 = load i32, i32* %3, align 4, !tbaa !5
  %166 = icmp slt i32 %165, 1
  br i1 %166, label %238, label %222

167:                                              ; preds = %0, %217
  %168 = phi i64 [ %218, %217 ], [ 1, %0 ]
  %169 = getelementptr inbounds [100 x [100 x i32]], [100 x [100 x i32]]* %1, i64 0, i64 %168, i64 1
  %170 = call i32 (i8*, ...) @__isoc99_scanf(i8* getelementptr inbounds ([3 x i8], [3 x i8]* @.str, i64 0, i64 0), i32* nonnull %169)
  %171 = getelementptr inbounds [100 x [27 x i8]], [100 x [27 x i8]]* %4, i64 0, i64 %168, i64 0
  %172 = call i32 (i8*, ...) @__isoc99_scanf(i8* getelementptr inbounds ([3 x i8], [3 x i8]* @.str.1, i64 0, i64 0), i8* nonnull %171)
  %173 = call i64 @strlen(i8* noundef nonnull %171) #6
  %174 = trunc i64 %173 to i32
  %175 = icmp sgt i32 %174, 0
  br i1 %175, label %176, label %217

176:                                              ; preds = %167
  %177 = and i64 %173, 4294967295
  %178 = and i64 %173, 1
  %179 = icmp eq i64 %177, 1
  br i1 %179, label %205, label %180

180:                                              ; preds = %176
  %181 = sub nsw i64 %177, %178
  br label %182

182:                                              ; preds = %182, %180
  %183 = phi i64 [ 0, %180 ], [ %202, %182 ]
  %184 = phi i64 [ %181, %180 ], [ %203, %182 ]
  %185 = getelementptr inbounds [100 x [27 x i8]], [100 x [27 x i8]]* %4, i64 0, i64 %168, i64 %183
  %186 = load i8, i8* %185, align 1, !tbaa !9
  %187 = sext i8 %186 to i64
  %188 = add nsw i64 %187, -65
  %189 = getelementptr inbounds [27 x i32], [27 x i32]* %2, i64 0, i64 %188
  %190 = load i32, i32* %189, align 4, !tbaa !5
  %191 = add nsw i32 %190, 1
  store i32 %191, i32* %189, align 4, !tbaa !5
  %192 = getelementptr inbounds [100 x [100 x i32]], [100 x [100 x i32]]* %1, i64 0, i64 %168, i64 %187
  store i32 1, i32* %192, align 4, !tbaa !5
  %193 = or i64 %183, 1
  %194 = getelementptr inbounds [100 x [27 x i8]], [100 x [27 x i8]]* %4, i64 0, i64 %168, i64 %193
  %195 = load i8, i8* %194, align 1, !tbaa !9
  %196 = sext i8 %195 to i64
  %197 = add nsw i64 %196, -65
  %198 = getelementptr inbounds [27 x i32], [27 x i32]* %2, i64 0, i64 %197
  %199 = load i32, i32* %198, align 4, !tbaa !5
  %200 = add nsw i32 %199, 1
  store i32 %200, i32* %198, align 4, !tbaa !5
  %201 = getelementptr inbounds [100 x [100 x i32]], [100 x [100 x i32]]* %1, i64 0, i64 %168, i64 %196
  store i32 1, i32* %201, align 4, !tbaa !5
  %202 = add nuw nsw i64 %183, 2
  %203 = add i64 %184, -2
  %204 = icmp eq i64 %203, 0
  br i1 %204, label %205, label %182, !llvm.loop !10

205:                                              ; preds = %182, %176
  %206 = phi i64 [ 0, %176 ], [ %202, %182 ]
  %207 = icmp eq i64 %178, 0
  br i1 %207, label %217, label %208

208:                                              ; preds = %205
  %209 = getelementptr inbounds [100 x [27 x i8]], [100 x [27 x i8]]* %4, i64 0, i64 %168, i64 %206
  %210 = load i8, i8* %209, align 1, !tbaa !9
  %211 = sext i8 %210 to i64
  %212 = add nsw i64 %211, -65
  %213 = getelementptr inbounds [27 x i32], [27 x i32]* %2, i64 0, i64 %212
  %214 = load i32, i32* %213, align 4, !tbaa !5
  %215 = add nsw i32 %214, 1
  store i32 %215, i32* %213, align 4, !tbaa !5
  %216 = getelementptr inbounds [100 x [100 x i32]], [100 x [100 x i32]]* %1, i64 0, i64 %168, i64 %211
  store i32 1, i32* %216, align 4, !tbaa !5
  br label %217

217:                                              ; preds = %208, %205, %167
  %218 = add nuw nsw i64 %168, 1
  %219 = load i32, i32* %3, align 4, !tbaa !5
  %220 = sext i32 %219 to i64
  %221 = icmp slt i64 %168, %220
  br i1 %221, label %167, label %12, !llvm.loop !12

222:                                              ; preds = %55, %233
  %223 = phi i32 [ %234, %233 ], [ %165, %55 ]
  %224 = phi i64 [ %235, %233 ], [ 1, %55 ]
  %225 = getelementptr inbounds [100 x [100 x i32]], [100 x [100 x i32]]* %1, i64 0, i64 %224, i64 %164
  %226 = load i32, i32* %225, align 4, !tbaa !5
  %227 = icmp eq i32 %226, 1
  br i1 %227, label %228, label %233

228:                                              ; preds = %222
  %229 = getelementptr inbounds [100 x [100 x i32]], [100 x [100 x i32]]* %1, i64 0, i64 %224, i64 1
  %230 = load i32, i32* %229, align 4, !tbaa !5
  %231 = call i32 (i8*, ...) @printf(i8* nonnull dereferenceable(1) getelementptr inbounds ([4 x i8], [4 x i8]* @.str.3, i64 0, i64 0), i32 %230)
  %232 = load i32, i32* %3, align 4, !tbaa !5
  br label %233

233:                                              ; preds = %222, %228
  %234 = phi i32 [ %223, %222 ], [ %232, %228 ]
  %235 = add nuw nsw i64 %224, 1
  %236 = sext i32 %234 to i64
  %237 = icmp slt i64 %224, %236
  br i1 %237, label %222, label %238, !llvm.loop !13

238:                                              ; preds = %233, %55
  call void @llvm.lifetime.end.p0i8(i64 2700, i8* nonnull %8) #5
  call void @llvm.lifetime.end.p0i8(i64 4, i8* nonnull %7) #5
  call void @llvm.lifetime.end.p0i8(i64 108, i8* nonnull %6) #5
  call void @llvm.lifetime.end.p0i8(i64 40000, i8* nonnull %5) #5
  ret i32 0
}

; Function Attrs: argmemonly mustprogress nofree nosync nounwind willreturn
declare void @llvm.lifetime.start.p0i8(i64 immarg, i8* nocapture) #1

; Function Attrs: nofree nounwind
declare noundef i32 @__isoc99_scanf(i8* nocapture noundef readonly, ...) local_unnamed_addr #2

; Function Attrs: argmemonly mustprogress nofree nounwind willreturn writeonly
declare void @llvm.memset.p0i8.i64(i8* nocapture writeonly, i8, i64, i1 immarg) #3

; Function Attrs: argmemonly mustprogress nofree nounwind readonly willreturn
declare i64 @strlen(i8* nocapture) local_unnamed_addr #4

; Function Attrs: nofree nounwind
declare noundef i32 @printf(i8* nocapture noundef readonly, ...) local_unnamed_addr #2

; Function Attrs: argmemonly mustprogress nofree nosync nounwind willreturn
declare void @llvm.lifetime.end.p0i8(i64 immarg, i8* nocapture) #1


!llvm.module.flags = !{!0, !1, !2, !3}
!llvm.ident = !{!4}

!0 = !{i32 1, !"wchar_size", i32 4}
!1 = !{i32 7, !"PIC Level", i32 2}
!2 = !{i32 7, !"PIE Level", i32 2}
!3 = !{i32 7, !"uwtable", i32 1}
!4 = !{!"clang version 13.0.0"}
!5 = !{!6, !6, i64 0}
!6 = !{!"int", !7, i64 0}
!7 = !{!"omnipotent char", !8, i64 0}
!8 = !{!"Simple C/C++ TBAA"}
!9 = !{!7, !7, i64 0}
!10 = distinct !{!10, !11}
!11 = !{!"llvm.loop.mustprogress"}
!12 = distinct !{!12, !11}
!13 = distinct !{!13, !11}
